; Function Attrs: mustprogress nounwind uwtable
define hidden noundef i32 @_ZN8JvmtiEnv12IsArrayClassEP7oopDescPh(ptr nocapture noundef nonnull readnone align 8 dereferenceable(460) %0, ptr noundef nonnull %1, ptr nocapture noundef writeonly %2) local_unnamed_addr #0 align 2 {
  %4 = load i32, ptr @_ZN15java_lang_Class13_klass_offsetE, align 4
  %5 = tail call noundef ptr @_ZNK7oopDesc14metadata_fieldEi(ptr noundef nonnull align 8 dereferenceable(16) %1, i32 noundef %4) #17
  %6 = icmp eq ptr %5, null
  br i1 %6, label %14, label %7

7:                                                ; preds = %3
  %8 = load i32, ptr @_ZN15java_lang_Class13_klass_offsetE, align 4
  %9 = tail call noundef ptr @_ZNK7oopDesc14metadata_fieldEi(ptr noundef nonnull align 8 dereferenceable(16) %1, i32 noundef %8) #17
  %.not = icmp eq ptr %9, null
  br i1 %.not, label %14, label %10

10:                                               ; preds = %7
  %11 = getelementptr inbounds i8, ptr %9, i64 12
  %12 = load i32, ptr %11, align 4
  %13 = icmp sgt i32 %12, 4
  %spec.select = zext i1 %13 to i8
  br label %14

14:                                               ; preds = %10, %7, %3
  %.0 = phi i8 [ 0, %3 ], [ 0, %7 ], [ %spec.select, %10 ]
  store i8 %.0, ptr %2, align 1
  ret i32 0
}